; Function Attrs: mustprogress uwtable
define noundef double @_ZN8QuantLib13BondFunctions13accruedAmountERKNS_4BondENS_4DateE(ptr noundef nonnull align 8 dereferenceable(248) %bond, i64 %settlement.coerce) local_unnamed_addr #3 align 2 {
entry:
  %ref.tmp.i = alloca %"class.QuantLib::Date", align 8
  %agg.tmp.i = alloca %"class.QuantLib::Date", align 8
  %ref.tmp = alloca %"class.QuantLib::Date", align 8
  %agg.tmp = alloca %"class.QuantLib::Date", align 8
  call void @llvm.lifetime.start.p0(i64 8, ptr nonnull %ref.tmp) #16
  call void @_ZN8QuantLib4DateC1Ev(ptr noundef nonnull align 8 dereferenceable(8) %ref.tmp)
  %0 = load i64, ptr %ref.tmp, align 8, !tbaa !3
  %cmp.i = icmp eq i64 %settlement.coerce, %0
  call void @llvm.lifetime.end.p0(i64 8, ptr nonnull %ref.tmp) #16
  br i1 %cmp.i, label %if.then, label %if.end

if.then:                                          ; preds = %entry
  call void @_ZN8QuantLib4DateC1Ev(ptr noundef nonnull align 8 dereferenceable(8) %agg.tmp)
  %1 = load i64, ptr %agg.tmp, align 8
  %call3 = call i64 @_ZNK8QuantLib4Bond14settlementDateENS_4DateE(ptr noundef nonnull align 8 dereferenceable(248) %bond, i64 %1)
  br label %if.end

if.end:                                           ; preds = %if.then, %entry
  %settlement.sroa.0.0 = phi i64 [ %call3, %if.then ], [ %settlement.coerce, %entry ]
  call void @llvm.lifetime.start.p0(i64 8, ptr nonnull %agg.tmp.i)
  call void @llvm.lifetime.start.p0(i64 8, ptr nonnull %ref.tmp.i) #16
  call void @_ZN8QuantLib4DateC1Ev(ptr noundef nonnull align 8 dereferenceable(8) %ref.tmp.i)
  %2 = load i64, ptr %ref.tmp.i, align 8, !tbaa !3
  %cmp.i.i = icmp eq i64 %settlement.sroa.0.0, %2
  call void @llvm.lifetime.end.p0(i64 8, ptr nonnull %ref.tmp.i) #16
  br i1 %cmp.i.i, label %if.then.i, label %_ZN8QuantLib13BondFunctions10isTradableERKNS_4BondENS_4DateE.exit

if.then.i:                                        ; preds = %if.end
  call void @_ZN8QuantLib4DateC1Ev(ptr noundef nonnull align 8 dereferenceable(8) %agg.tmp.i)
  %3 = load i64, ptr %agg.tmp.i, align 8
  %call3.i = call i64 @_ZNK8QuantLib4Bond14settlementDateENS_4DateE(ptr noundef nonnull align 8 dereferenceable(248) %bond, i64 %3)
  br label %_ZN8QuantLib13BondFunctions10isTradableERKNS_4BondENS_4DateE.exit

_ZN8QuantLib13BondFunctions10isTradableERKNS_4BondENS_4DateE.exit: ; preds = %if.end, %if.then.i
  %settlement.sroa.0.0.i = phi i64 [ %call3.i, %if.then.i ], [ %settlement.sroa.0.0, %if.end ]
  %vtable.i = load ptr, ptr %bond, align 8, !tbaa !8
  %vfn.i = getelementptr inbounds i8, ptr %vtable.i, i64 80
  %4 = load ptr, ptr %vfn.i, align 8
  %call7.i = call noundef double %4(ptr noundef nonnull align 8 dereferenceable(248) %bond, i64 %settlement.sroa.0.0.i)
  %cmp.i4 = fcmp une double %call7.i, 0.000000e+00
  call void @llvm.lifetime.end.p0(i64 8, ptr nonnull %agg.tmp.i)
  br i1 %cmp.i4, label %if.end9, label %return

if.end9:                                          ; preds = %_ZN8QuantLib13BondFunctions10isTradableERKNS_4BondENS_4DateE.exit
  %cashflows_.i = getelementptr inbounds nuw i8, ptr %bond, i64 176
  %call13 = call noundef double @_ZN8QuantLib9CashFlows13accruedAmountERKSt6vectorIN5boost10shared_ptrINS_8CashFlowEEESaIS5_EEbNS_4DateE(ptr noundef nonnull align 8 dereferenceable(24) %cashflows_.i, i1 noundef zeroext false, i64 %settlement.sroa.0.0)
  %mul = fmul double %call13, 1.000000e+02
  %vtable = load ptr, ptr %bond, align 8, !tbaa !8
  %vfn = getelementptr inbounds i8, ptr %vtable, i64 80
  %5 = load ptr, ptr %vfn, align 8
  %call16 = call noundef double %5(ptr noundef nonnull align 8 dereferenceable(248) %bond, i64 %settlement.sroa.0.0)
  %div = fdiv double %mul, %call16
  br label %return

return:                                           ; preds = %_ZN8QuantLib13BondFunctions10isTradableERKNS_4BondENS_4DateE.exit, %if.end9
  %retval.0 = phi double [ %div, %if.end9 ], [ 0.000000e+00, %_ZN8QuantLib13BondFunctions10isTradableERKNS_4BondENS_4DateE.exit ]
  ret double %retval.0
}